bomb:     file format elf32-i386


Disassembly of section .init:

08048734 <_init>:
 8048734:	53                   	push   %ebx
 8048735:	83 ec 08             	sub    $0x8,%esp
 8048738:	e8 83 02 00 00       	call   80489c0 <__x86.get_pc_thunk.bx>
 804873d:	81 c3 bb 29 00 00    	add    $0x29bb,%ebx
 8048743:	8b 83 fc ff ff ff    	mov    -0x4(%ebx),%eax
 8048749:	85 c0                	test   %eax,%eax
 804874b:	74 05                	je     8048752 <_init+0x1e>
 804874d:	e8 2e 01 00 00       	call   8048880 <__gmon_start__@plt>
 8048752:	83 c4 08             	add    $0x8,%esp
 8048755:	5b                   	pop    %ebx
 8048756:	c3                   	ret    

Disassembly of section .plt:

08048760 <cuserid@plt-0x10>:
 8048760:	ff 35 fc b0 04 08    	pushl  0x804b0fc
 8048766:	ff 25 00 b1 04 08    	jmp    *0x804b100
 804876c:	00 00                	add    %al,(%eax)
	...

08048770 <cuserid@plt>:
 8048770:	ff 25 04 b1 04 08    	jmp    *0x804b104
 8048776:	68 00 00 00 00       	push   $0x0
 804877b:	e9 e0 ff ff ff       	jmp    8048760 <_init+0x2c>

08048780 <printf@plt>:
 8048780:	ff 25 08 b1 04 08    	jmp    *0x804b108
 8048786:	68 08 00 00 00       	push   $0x8
 804878b:	e9 d0 ff ff ff       	jmp    8048760 <_init+0x2c>

08048790 <fflush@plt>:
 8048790:	ff 25 0c b1 04 08    	jmp    *0x804b10c
 8048796:	68 10 00 00 00       	push   $0x10
 804879b:	e9 c0 ff ff ff       	jmp    8048760 <_init+0x2c>

080487a0 <dup@plt>:
 80487a0:	ff 25 10 b1 04 08    	jmp    *0x804b110
 80487a6:	68 18 00 00 00       	push   $0x18
 80487ab:	e9 b0 ff ff ff       	jmp    8048760 <_init+0x2c>

080487b0 <inet_pton@plt>:
 80487b0:	ff 25 14 b1 04 08    	jmp    *0x804b114
 80487b6:	68 20 00 00 00       	push   $0x20
 80487bb:	e9 a0 ff ff ff       	jmp    8048760 <_init+0x2c>

080487c0 <fgets@plt>:
 80487c0:	ff 25 18 b1 04 08    	jmp    *0x804b118
 80487c6:	68 28 00 00 00       	push   $0x28
 80487cb:	e9 90 ff ff ff       	jmp    8048760 <_init+0x2c>

080487d0 <fclose@plt>:
 80487d0:	ff 25 1c b1 04 08    	jmp    *0x804b11c
 80487d6:	68 30 00 00 00       	push   $0x30
 80487db:	e9 80 ff ff ff       	jmp    8048760 <_init+0x2c>

080487e0 <signal@plt>:
 80487e0:	ff 25 20 b1 04 08    	jmp    *0x804b120
 80487e6:	68 38 00 00 00       	push   $0x38
 80487eb:	e9 70 ff ff ff       	jmp    8048760 <_init+0x2c>

080487f0 <sleep@plt>:
 80487f0:	ff 25 24 b1 04 08    	jmp    *0x804b124
 80487f6:	68 40 00 00 00       	push   $0x40
 80487fb:	e9 60 ff ff ff       	jmp    8048760 <_init+0x2c>

08048800 <rewind@plt>:
 8048800:	ff 25 28 b1 04 08    	jmp    *0x804b128
 8048806:	68 48 00 00 00       	push   $0x48
 804880b:	e9 50 ff ff ff       	jmp    8048760 <_init+0x2c>

08048810 <fwrite@plt>:
 8048810:	ff 25 2c b1 04 08    	jmp    *0x804b12c
 8048816:	68 50 00 00 00       	push   $0x50
 804881b:	e9 40 ff ff ff       	jmp    8048760 <_init+0x2c>

08048820 <bcopy@plt>:
 8048820:	ff 25 30 b1 04 08    	jmp    *0x804b130
 8048826:	68 58 00 00 00       	push   $0x58
 804882b:	e9 30 ff ff ff       	jmp    8048760 <_init+0x2c>

08048830 <strcat@plt>:
 8048830:	ff 25 34 b1 04 08    	jmp    *0x804b134
 8048836:	68 60 00 00 00       	push   $0x60
 804883b:	e9 20 ff ff ff       	jmp    8048760 <_init+0x2c>

08048840 <strcpy@plt>:
 8048840:	ff 25 38 b1 04 08    	jmp    *0x804b138
 8048846:	68 68 00 00 00       	push   $0x68
 804884b:	e9 10 ff ff ff       	jmp    8048760 <_init+0x2c>

08048850 <getenv@plt>:
 8048850:	ff 25 3c b1 04 08    	jmp    *0x804b13c
 8048856:	68 70 00 00 00       	push   $0x70
 804885b:	e9 00 ff ff ff       	jmp    8048760 <_init+0x2c>

08048860 <puts@plt>:
 8048860:	ff 25 40 b1 04 08    	jmp    *0x804b140
 8048866:	68 78 00 00 00       	push   $0x78
 804886b:	e9 f0 fe ff ff       	jmp    8048760 <_init+0x2c>

08048870 <system@plt>:
 8048870:	ff 25 44 b1 04 08    	jmp    *0x804b144
 8048876:	68 80 00 00 00       	push   $0x80
 804887b:	e9 e0 fe ff ff       	jmp    8048760 <_init+0x2c>

08048880 <__gmon_start__@plt>:
 8048880:	ff 25 48 b1 04 08    	jmp    *0x804b148
 8048886:	68 88 00 00 00       	push   $0x88
 804888b:	e9 d0 fe ff ff       	jmp    8048760 <_init+0x2c>

08048890 <exit@plt>:
 8048890:	ff 25 4c b1 04 08    	jmp    *0x804b14c
 8048896:	68 90 00 00 00       	push   $0x90
 804889b:	e9 c0 fe ff ff       	jmp    8048760 <_init+0x2c>

080488a0 <__libc_start_main@plt>:
 80488a0:	ff 25 50 b1 04 08    	jmp    *0x804b150
 80488a6:	68 98 00 00 00       	push   $0x98
 80488ab:	e9 b0 fe ff ff       	jmp    8048760 <_init+0x2c>

080488b0 <fprintf@plt>:
 80488b0:	ff 25 54 b1 04 08    	jmp    *0x804b154
 80488b6:	68 a0 00 00 00       	push   $0xa0
 80488bb:	e9 a0 fe ff ff       	jmp    8048760 <_init+0x2c>

080488c0 <write@plt>:
 80488c0:	ff 25 58 b1 04 08    	jmp    *0x804b158
 80488c6:	68 a8 00 00 00       	push   $0xa8
 80488cb:	e9 90 fe ff ff       	jmp    8048760 <_init+0x2c>

080488d0 <__isoc99_sscanf@plt>:
 80488d0:	ff 25 5c b1 04 08    	jmp    *0x804b15c
 80488d6:	68 b0 00 00 00       	push   $0xb0
 80488db:	e9 80 fe ff ff       	jmp    8048760 <_init+0x2c>

080488e0 <fopen@plt>:
 80488e0:	ff 25 60 b1 04 08    	jmp    *0x804b160
 80488e6:	68 b8 00 00 00       	push   $0xb8
 80488eb:	e9 70 fe ff ff       	jmp    8048760 <_init+0x2c>

080488f0 <__errno_location@plt>:
 80488f0:	ff 25 64 b1 04 08    	jmp    *0x804b164
 80488f6:	68 c0 00 00 00       	push   $0xc0
 80488fb:	e9 60 fe ff ff       	jmp    8048760 <_init+0x2c>

08048900 <fputc@plt>:
 8048900:	ff 25 68 b1 04 08    	jmp    *0x804b168
 8048906:	68 c8 00 00 00       	push   $0xc8
 804890b:	e9 50 fe ff ff       	jmp    8048760 <_init+0x2c>

08048910 <sprintf@plt>:
 8048910:	ff 25 6c b1 04 08    	jmp    *0x804b16c
 8048916:	68 d0 00 00 00       	push   $0xd0
 804891b:	e9 40 fe ff ff       	jmp    8048760 <_init+0x2c>

08048920 <tmpfile@plt>:
 8048920:	ff 25 70 b1 04 08    	jmp    *0x804b170
 8048926:	68 d8 00 00 00       	push   $0xd8
 804892b:	e9 30 fe ff ff       	jmp    8048760 <_init+0x2c>

08048930 <socket@plt>:
 8048930:	ff 25 74 b1 04 08    	jmp    *0x804b174
 8048936:	68 e0 00 00 00       	push   $0xe0
 804893b:	e9 20 fe ff ff       	jmp    8048760 <_init+0x2c>

08048940 <gethostbyname@plt>:
 8048940:	ff 25 78 b1 04 08    	jmp    *0x804b178
 8048946:	68 e8 00 00 00       	push   $0xe8
 804894b:	e9 10 fe ff ff       	jmp    8048760 <_init+0x2c>

08048950 <strtol@plt>:
 8048950:	ff 25 7c b1 04 08    	jmp    *0x804b17c
 8048956:	68 f0 00 00 00       	push   $0xf0
 804895b:	e9 00 fe ff ff       	jmp    8048760 <_init+0x2c>

08048960 <connect@plt>:
 8048960:	ff 25 80 b1 04 08    	jmp    *0x804b180
 8048966:	68 f8 00 00 00       	push   $0xf8
 804896b:	e9 f0 fd ff ff       	jmp    8048760 <_init+0x2c>

08048970 <close@plt>:
 8048970:	ff 25 84 b1 04 08    	jmp    *0x804b184
 8048976:	68 00 01 00 00       	push   $0x100
 804897b:	e9 e0 fd ff ff       	jmp    8048760 <_init+0x2c>

08048980 <__ctype_b_loc@plt>:
 8048980:	ff 25 88 b1 04 08    	jmp    *0x804b188
 8048986:	68 08 01 00 00       	push   $0x108
 804898b:	e9 d0 fd ff ff       	jmp    8048760 <_init+0x2c>

Disassembly of section .text:

08048990 <_start>:
 8048990:	31 ed                	xor    %ebp,%ebp
 8048992:	5e                   	pop    %esi
 8048993:	89 e1                	mov    %esp,%ecx
 8048995:	83 e4 f0             	and    $0xfffffff0,%esp
 8048998:	50                   	push   %eax
 8048999:	54                   	push   %esp
 804899a:	52                   	push   %edx
 804899b:	68 20 9a 04 08       	push   $0x8049a20
 80489a0:	68 b0 99 04 08       	push   $0x80499b0
 80489a5:	51                   	push   %ecx
 80489a6:	56                   	push   %esi
 80489a7:	68 8b 8a 04 08       	push   $0x8048a8b
 80489ac:	e8 ef fe ff ff       	call   80488a0 <__libc_start_main@plt>
 80489b1:	f4                   	hlt    
 80489b2:	66 90                	xchg   %ax,%ax
 80489b4:	66 90                	xchg   %ax,%ax
 80489b6:	66 90                	xchg   %ax,%ax
 80489b8:	66 90                	xchg   %ax,%ax
 80489ba:	66 90                	xchg   %ax,%ax
 80489bc:	66 90                	xchg   %ax,%ax
 80489be:	66 90                	xchg   %ax,%ax

080489c0 <__x86.get_pc_thunk.bx>:
 80489c0:	8b 1c 24             	mov    (%esp),%ebx
 80489c3:	c3                   	ret    
 80489c4:	66 90                	xchg   %ax,%ax
 80489c6:	66 90                	xchg   %ax,%ax
 80489c8:	66 90                	xchg   %ax,%ax
 80489ca:	66 90                	xchg   %ax,%ax
 80489cc:	66 90                	xchg   %ax,%ax
 80489ce:	66 90                	xchg   %ax,%ax

080489d0 <deregister_tm_clones>:
 80489d0:	b8 47 b7 04 08       	mov    $0x804b747,%eax
 80489d5:	2d 44 b7 04 08       	sub    $0x804b744,%eax
 80489da:	83 f8 06             	cmp    $0x6,%eax
 80489dd:	76 1a                	jbe    80489f9 <deregister_tm_clones+0x29>
 80489df:	b8 00 00 00 00       	mov    $0x0,%eax
 80489e4:	85 c0                	test   %eax,%eax
 80489e6:	74 11                	je     80489f9 <deregister_tm_clones+0x29>
 80489e8:	55                   	push   %ebp
 80489e9:	89 e5                	mov    %esp,%ebp
 80489eb:	83 ec 14             	sub    $0x14,%esp
 80489ee:	68 44 b7 04 08       	push   $0x804b744
 80489f3:	ff d0                	call   *%eax
 80489f5:	83 c4 10             	add    $0x10,%esp
 80489f8:	c9                   	leave  
 80489f9:	f3 c3                	repz ret 
 80489fb:	90                   	nop
 80489fc:	8d 74 26 00          	lea    0x0(%esi,%eiz,1),%esi

08048a00 <register_tm_clones>:
 8048a00:	b8 44 b7 04 08       	mov    $0x804b744,%eax
 8048a05:	2d 44 b7 04 08       	sub    $0x804b744,%eax
 8048a0a:	c1 f8 02             	sar    $0x2,%eax
 8048a0d:	89 c2                	mov    %eax,%edx
 8048a0f:	c1 ea 1f             	shr    $0x1f,%edx
 8048a12:	01 d0                	add    %edx,%eax
 8048a14:	d1 f8                	sar    %eax
 8048a16:	74 1b                	je     8048a33 <register_tm_clones+0x33>
 8048a18:	ba 00 00 00 00       	mov    $0x0,%edx
 8048a1d:	85 d2                	test   %edx,%edx
 8048a1f:	74 12                	je     8048a33 <register_tm_clones+0x33>
 8048a21:	55                   	push   %ebp
 8048a22:	89 e5                	mov    %esp,%ebp
 8048a24:	83 ec 10             	sub    $0x10,%esp
 8048a27:	50                   	push   %eax
 8048a28:	68 44 b7 04 08       	push   $0x804b744
 8048a2d:	ff d2                	call   *%edx
 8048a2f:	83 c4 10             	add    $0x10,%esp
 8048a32:	c9                   	leave  
 8048a33:	f3 c3                	repz ret 
 8048a35:	8d 74 26 00          	lea    0x0(%esi,%eiz,1),%esi
 8048a39:	8d bc 27 00 00 00 00 	lea    0x0(%edi,%eiz,1),%edi

08048a40 <__do_global_dtors_aux>:
 8048a40:	80 3d a4 b7 04 08 00 	cmpb   $0x0,0x804b7a4
 8048a47:	75 13                	jne    8048a5c <__do_global_dtors_aux+0x1c>
 8048a49:	55                   	push   %ebp
 8048a4a:	89 e5                	mov    %esp,%ebp
 8048a4c:	83 ec 08             	sub    $0x8,%esp
 8048a4f:	e8 7c ff ff ff       	call   80489d0 <deregister_tm_clones>
 8048a54:	c6 05 a4 b7 04 08 01 	movb   $0x1,0x804b7a4
 8048a5b:	c9                   	leave  
 8048a5c:	f3 c3                	repz ret 
 8048a5e:	66 90                	xchg   %ax,%ax

08048a60 <frame_dummy>:
 8048a60:	b8 08 b0 04 08       	mov    $0x804b008,%eax
 8048a65:	8b 10                	mov    (%eax),%edx
 8048a67:	85 d2                	test   %edx,%edx
 8048a69:	75 05                	jne    8048a70 <frame_dummy+0x10>
 8048a6b:	eb 93                	jmp    8048a00 <register_tm_clones>
 8048a6d:	8d 76 00             	lea    0x0(%esi),%esi
 8048a70:	ba 00 00 00 00       	mov    $0x0,%edx
 8048a75:	85 d2                	test   %edx,%edx
 8048a77:	74 f2                	je     8048a6b <frame_dummy+0xb>
 8048a79:	55                   	push   %ebp
 8048a7a:	89 e5                	mov    %esp,%ebp
 8048a7c:	83 ec 14             	sub    $0x14,%esp
 8048a7f:	50                   	push   %eax
 8048a80:	ff d2                	call   *%edx
 8048a82:	83 c4 10             	add    $0x10,%esp
 8048a85:	c9                   	leave  
 8048a86:	e9 75 ff ff ff       	jmp    8048a00 <register_tm_clones>

08048a8b <main>:
 8048a8b:	8d 4c 24 04          	lea    0x4(%esp),%ecx
 8048a8f:	83 e4 f0             	and    $0xfffffff0,%esp
 8048a92:	ff 71 fc             	pushl  -0x4(%ecx)
 8048a95:	55                   	push   %ebp
 8048a96:	89 e5                	mov    %esp,%ebp
 8048a98:	53                   	push   %ebx
 8048a99:	51                   	push   %ecx
 8048a9a:	8b 01                	mov    (%ecx),%eax
 8048a9c:	8b 59 04             	mov    0x4(%ecx),%ebx
 8048a9f:	83 f8 01             	cmp    $0x1,%eax
 8048aa2:	75 0c                	jne    8048ab0 <main+0x25>
 8048aa4:	a1 80 b7 04 08       	mov    0x804b780,%eax
 8048aa9:	a3 ac b7 04 08       	mov    %eax,0x804b7ac
 8048aae:	eb 5a                	jmp    8048b0a <main+0x7f>
 8048ab0:	83 f8 02             	cmp    $0x2,%eax
 8048ab3:	75 3a                	jne    8048aef <main+0x64>
 8048ab5:	83 ec 08             	sub    $0x8,%esp
 8048ab8:	68 8f 9e 04 08       	push   $0x8049e8f
 8048abd:	ff 73 04             	pushl  0x4(%ebx)
 8048ac0:	e8 1b fe ff ff       	call   80488e0 <fopen@plt>
 8048ac5:	a3 ac b7 04 08       	mov    %eax,0x804b7ac
 8048aca:	83 c4 10             	add    $0x10,%esp
 8048acd:	85 c0                	test   %eax,%eax
 8048acf:	75 39                	jne    8048b0a <main+0x7f>
 8048ad1:	83 ec 04             	sub    $0x4,%esp
 8048ad4:	ff 73 04             	pushl  0x4(%ebx)
 8048ad7:	ff 33                	pushl  (%ebx)
 8048ad9:	68 48 9a 04 08       	push   $0x8049a48
 8048ade:	e8 9d fc ff ff       	call   8048780 <printf@plt>
 8048ae3:	c7 04 24 08 00 00 00 	movl   $0x8,(%esp)
 8048aea:	e8 a1 fd ff ff       	call   8048890 <exit@plt>
 8048aef:	83 ec 08             	sub    $0x8,%esp
 8048af2:	ff 33                	pushl  (%ebx)
 8048af4:	68 65 9a 04 08       	push   $0x8049a65
 8048af9:	e8 82 fc ff ff       	call   8048780 <printf@plt>
 8048afe:	c7 04 24 08 00 00 00 	movl   $0x8,(%esp)
 8048b05:	e8 86 fd ff ff       	call   8048890 <exit@plt>
 8048b0a:	e8 93 06 00 00       	call   80491a2 <initialize_bomb>
 8048b0f:	83 ec 0c             	sub    $0xc,%esp
 8048b12:	68 cc 9a 04 08       	push   $0x8049acc
 8048b17:	e8 44 fd ff ff       	call   8048860 <puts@plt>
 8048b1c:	c7 04 24 08 9b 04 08 	movl   $0x8049b08,(%esp)
 8048b23:	e8 38 fd ff ff       	call   8048860 <puts@plt>
 8048b28:	e8 28 0d 00 00       	call   8049855 <read_line>
 8048b2d:	89 04 24             	mov    %eax,(%esp)
 8048b30:	e8 ad 00 00 00       	call   8048be2 <phase_1>
 8048b35:	e8 e2 0d 00 00       	call   804991c <phase_defused>
 8048b3a:	c7 04 24 34 9b 04 08 	movl   $0x8049b34,(%esp)
 8048b41:	e8 1a fd ff ff       	call   8048860 <puts@plt>
 8048b46:	e8 0a 0d 00 00       	call   8049855 <read_line>
 8048b4b:	89 04 24             	mov    %eax,(%esp)
 8048b4e:	e8 b0 00 00 00       	call   8048c03 <phase_2>
 8048b53:	e8 c4 0d 00 00       	call   804991c <phase_defused>
 8048b58:	c7 04 24 7f 9a 04 08 	movl   $0x8049a7f,(%esp)
 8048b5f:	e8 fc fc ff ff       	call   8048860 <puts@plt>
 8048b64:	e8 ec 0c 00 00       	call   8049855 <read_line>
 8048b69:	89 04 24             	mov    %eax,(%esp)
 8048b6c:	e8 db 00 00 00       	call   8048c4c <phase_3>
 8048b71:	e8 a6 0d 00 00       	call   804991c <phase_defused>
 8048b76:	c7 04 24 9d 9a 04 08 	movl   $0x8049a9d,(%esp)
 8048b7d:	e8 de fc ff ff       	call   8048860 <puts@plt>
 8048b82:	e8 ce 0c 00 00       	call   8049855 <read_line>
 8048b87:	89 04 24             	mov    %eax,(%esp)
 8048b8a:	e8 41 02 00 00       	call   8048dd0 <phase_4>
 8048b8f:	e8 88 0d 00 00       	call   804991c <phase_defused>
 8048b94:	c7 04 24 60 9b 04 08 	movl   $0x8049b60,(%esp)
 8048b9b:	e8 c0 fc ff ff       	call   8048860 <puts@plt>
 8048ba0:	e8 b0 0c 00 00       	call   8049855 <read_line>
 8048ba5:	89 04 24             	mov    %eax,(%esp)
 8048ba8:	e8 6c 02 00 00       	call   8048e19 <phase_5>
 8048bad:	e8 6a 0d 00 00       	call   804991c <phase_defused>
 8048bb2:	c7 04 24 ac 9a 04 08 	movl   $0x8049aac,(%esp)
 8048bb9:	e8 a2 fc ff ff       	call   8048860 <puts@plt>
 8048bbe:	e8 92 0c 00 00       	call   8049855 <read_line>
 8048bc3:	89 04 24             	mov    %eax,(%esp)
 8048bc6:	e8 12 03 00 00       	call   8048edd <phase_6>
 8048bcb:	e8 4c 0d 00 00       	call   804991c <phase_defused>
 8048bd0:	83 c4 10             	add    $0x10,%esp
 8048bd3:	b8 00 00 00 00       	mov    $0x0,%eax
 8048bd8:	8d 65 f8             	lea    -0x8(%ebp),%esp
 8048bdb:	59                   	pop    %ecx
 8048bdc:	5b                   	pop    %ebx
 8048bdd:	5d                   	pop    %ebp
 8048bde:	8d 61 fc             	lea    -0x4(%ecx),%esp
 8048be1:	c3                   	ret    

08048be2 <phase_1>:
 8048be2:	83 ec 14             	sub    $0x14,%esp
 8048be5:	68 84 9b 04 08       	push   $0x8049b84
 8048bea:	ff 74 24 1c          	pushl  0x1c(%esp)
 8048bee:	e8 6e 04 00 00       	call   8049061 <strings_not_equal>
 8048bf3:	83 c4 10             	add    $0x10,%esp
 8048bf6:	85 c0                	test   %eax,%eax
 8048bf8:	74 05                	je     8048bff <phase_1+0x1d>
 8048bfa:	e8 de 0b 00 00       	call   80497dd <explode_bomb>
 8048bff:	83 c4 0c             	add    $0xc,%esp
 8048c02:	c3                   	ret    

08048c03 <phase_2>:
 8048c03:	55                   	push   %ebp
 8048c04:	57                   	push   %edi
 8048c05:	56                   	push   %esi
 8048c06:	53                   	push   %ebx
 8048c07:	83 ec 34             	sub    $0x34,%esp
 8048c0a:	8d 5c 24 10          	lea    0x10(%esp),%ebx
 8048c0e:	53                   	push   %ebx
 8048c0f:	ff 74 24 4c          	pushl  0x4c(%esp)
 8048c13:	e8 02 0c 00 00       	call   804981a <read_six_numbers>
 8048c18:	8d 6c 24 24          	lea    0x24(%esp),%ebp
 8048c1c:	83 c4 10             	add    $0x10,%esp
 8048c1f:	be 00 00 00 00       	mov    $0x0,%esi
 8048c24:	89 df                	mov    %ebx,%edi
 8048c26:	8b 43 0c             	mov    0xc(%ebx),%eax
 8048c29:	39 03                	cmp    %eax,(%ebx)
 8048c2b:	74 05                	je     8048c32 <phase_2+0x2f>
 8048c2d:	e8 ab 0b 00 00       	call   80497dd <explode_bomb>
 8048c32:	03 37                	add    (%edi),%esi
 8048c34:	83 c3 04             	add    $0x4,%ebx
 8048c37:	39 eb                	cmp    %ebp,%ebx
 8048c39:	75 e9                	jne    8048c24 <phase_2+0x21>
 8048c3b:	85 f6                	test   %esi,%esi
 8048c3d:	75 05                	jne    8048c44 <phase_2+0x41>
 8048c3f:	e8 99 0b 00 00       	call   80497dd <explode_bomb>
 8048c44:	83 c4 2c             	add    $0x2c,%esp
 8048c47:	5b                   	pop    %ebx
 8048c48:	5e                   	pop    %esi
 8048c49:	5f                   	pop    %edi
 8048c4a:	5d                   	pop    %ebp
 8048c4b:	c3                   	ret    

08048c4c <phase_3>:
 8048c4c:	83 ec 28             	sub    $0x28,%esp
 8048c4f:	8d 44 24 14          	lea    0x14(%esp),%eax
 8048c53:	50                   	push   %eax
 8048c54:	8d 44 24 17          	lea    0x17(%esp),%eax
 8048c58:	50                   	push   %eax
 8048c59:	8d 44 24 20          	lea    0x20(%esp),%eax
 8048c5d:	50                   	push   %eax
 8048c5e:	68 de 9b 04 08       	push   $0x8049bde
 8048c63:	ff 74 24 3c          	pushl  0x3c(%esp)
 8048c67:	e8 64 fc ff ff       	call   80488d0 <__isoc99_sscanf@plt>
 8048c6c:	83 c4 20             	add    $0x20,%esp
 8048c6f:	83 f8 02             	cmp    $0x2,%eax
 8048c72:	7f 05                	jg     8048c79 <phase_3+0x2d>
 8048c74:	e8 64 0b 00 00       	call   80497dd <explode_bomb>
 8048c79:	83 7c 24 0c 07       	cmpl   $0x7,0xc(%esp)
 8048c7e:	0f 87 fc 00 00 00    	ja     8048d80 <phase_3+0x134>
 8048c84:	8b 44 24 0c          	mov    0xc(%esp),%eax
 8048c88:	ff 24 85 00 9c 04 08 	jmp    *0x8049c00(,%eax,4)
 8048c8f:	b8 66 00 00 00       	mov    $0x66,%eax
 8048c94:	81 7c 24 08 2e 03 00 	cmpl   $0x32e,0x8(%esp)
 8048c9b:	00 
 8048c9c:	0f 84 e8 00 00 00    	je     8048d8a <phase_3+0x13e>
 8048ca2:	e8 36 0b 00 00       	call   80497dd <explode_bomb>
 8048ca7:	b8 66 00 00 00       	mov    $0x66,%eax
 8048cac:	e9 d9 00 00 00       	jmp    8048d8a <phase_3+0x13e>
 8048cb1:	b8 7a 00 00 00       	mov    $0x7a,%eax
 8048cb6:	81 7c 24 08 95 00 00 	cmpl   $0x95,0x8(%esp)
 8048cbd:	00 
 8048cbe:	0f 84 c6 00 00 00    	je     8048d8a <phase_3+0x13e>
 8048cc4:	e8 14 0b 00 00       	call   80497dd <explode_bomb>
 8048cc9:	b8 7a 00 00 00       	mov    $0x7a,%eax
 8048cce:	e9 b7 00 00 00       	jmp    8048d8a <phase_3+0x13e>
 8048cd3:	b8 61 00 00 00       	mov    $0x61,%eax
 8048cd8:	81 7c 24 08 57 01 00 	cmpl   $0x157,0x8(%esp)
 8048cdf:	00 
 8048ce0:	0f 84 a4 00 00 00    	je     8048d8a <phase_3+0x13e>
 8048ce6:	e8 f2 0a 00 00       	call   80497dd <explode_bomb>
 8048ceb:	b8 61 00 00 00       	mov    $0x61,%eax
 8048cf0:	e9 95 00 00 00       	jmp    8048d8a <phase_3+0x13e>
 8048cf5:	b8 6e 00 00 00       	mov    $0x6e,%eax
 8048cfa:	81 7c 24 08 a2 02 00 	cmpl   $0x2a2,0x8(%esp)
 8048d01:	00 
 8048d02:	0f 84 82 00 00 00    	je     8048d8a <phase_3+0x13e>
 8048d08:	e8 d0 0a 00 00       	call   80497dd <explode_bomb>
 8048d0d:	b8 6e 00 00 00       	mov    $0x6e,%eax
 8048d12:	eb 76                	jmp    8048d8a <phase_3+0x13e>
 8048d14:	b8 76 00 00 00       	mov    $0x76,%eax
 8048d19:	81 7c 24 08 62 01 00 	cmpl   $0x162,0x8(%esp)
 8048d20:	00 
 8048d21:	74 67                	je     8048d8a <phase_3+0x13e>
 8048d23:	e8 b5 0a 00 00       	call   80497dd <explode_bomb>
 8048d28:	b8 76 00 00 00       	mov    $0x76,%eax
 8048d2d:	eb 5b                	jmp    8048d8a <phase_3+0x13e>
 8048d2f:	b8 6f 00 00 00       	mov    $0x6f,%eax
 8048d34:	81 7c 24 08 e6 02 00 	cmpl   $0x2e6,0x8(%esp)
 8048d3b:	00 
 8048d3c:	74 4c                	je     8048d8a <phase_3+0x13e>
 8048d3e:	e8 9a 0a 00 00       	call   80497dd <explode_bomb>
 8048d43:	b8 6f 00 00 00       	mov    $0x6f,%eax
 8048d48:	eb 40                	jmp    8048d8a <phase_3+0x13e>
 8048d4a:	b8 6d 00 00 00       	mov    $0x6d,%eax
 8048d4f:	81 7c 24 08 69 03 00 	cmpl   $0x369,0x8(%esp)
 8048d56:	00 
 8048d57:	74 31                	je     8048d8a <phase_3+0x13e>
 8048d59:	e8 7f 0a 00 00       	call   80497dd <explode_bomb>
 8048d5e:	b8 6d 00 00 00       	mov    $0x6d,%eax
 8048d63:	eb 25                	jmp    8048d8a <phase_3+0x13e>
 8048d65:	b8 73 00 00 00       	mov    $0x73,%eax
 8048d6a:	81 7c 24 08 f1 01 00 	cmpl   $0x1f1,0x8(%esp)
 8048d71:	00 
 8048d72:	74 16                	je     8048d8a <phase_3+0x13e>
 8048d74:	e8 64 0a 00 00       	call   80497dd <explode_bomb>
 8048d79:	b8 73 00 00 00       	mov    $0x73,%eax
 8048d7e:	eb 0a                	jmp    8048d8a <phase_3+0x13e>
 8048d80:	e8 58 0a 00 00       	call   80497dd <explode_bomb>
 8048d85:	b8 63 00 00 00       	mov    $0x63,%eax
 8048d8a:	3a 44 24 07          	cmp    0x7(%esp),%al
 8048d8e:	74 05                	je     8048d95 <phase_3+0x149>
 8048d90:	e8 48 0a 00 00       	call   80497dd <explode_bomb>
 8048d95:	83 c4 1c             	add    $0x1c,%esp
 8048d98:	c3                   	ret    

08048d99 <func4>:
 8048d99:	56                   	push   %esi
 8048d9a:	53                   	push   %ebx
 8048d9b:	83 ec 04             	sub    $0x4,%esp
 8048d9e:	8b 5c 24 10          	mov    0x10(%esp),%ebx
 8048da2:	b8 01 00 00 00       	mov    $0x1,%eax
 8048da7:	83 fb 01             	cmp    $0x1,%ebx
 8048daa:	7e 1e                	jle    8048dca <func4+0x31>
 8048dac:	83 ec 0c             	sub    $0xc,%esp
 8048daf:	8d 43 ff             	lea    -0x1(%ebx),%eax
 8048db2:	50                   	push   %eax
 8048db3:	e8 e1 ff ff ff       	call   8048d99 <func4>
 8048db8:	89 c6                	mov    %eax,%esi
 8048dba:	83 eb 02             	sub    $0x2,%ebx
 8048dbd:	89 1c 24             	mov    %ebx,(%esp)
 8048dc0:	e8 d4 ff ff ff       	call   8048d99 <func4>
 8048dc5:	83 c4 10             	add    $0x10,%esp
 8048dc8:	01 f0                	add    %esi,%eax
 8048dca:	83 c4 04             	add    $0x4,%esp
 8048dcd:	5b                   	pop    %ebx
 8048dce:	5e                   	pop    %esi
 8048dcf:	c3                   	ret    

08048dd0 <phase_4>:
 8048dd0:	83 ec 20             	sub    $0x20,%esp
 8048dd3:	8d 44 24 10          	lea    0x10(%esp),%eax
 8048dd7:	50                   	push   %eax
 8048dd8:	68 e4 9b 04 08       	push   $0x8049be4
 8048ddd:	ff 74 24 2c          	pushl  0x2c(%esp)
 8048de1:	e8 ea fa ff ff       	call   80488d0 <__isoc99_sscanf@plt>
 8048de6:	83 c4 10             	add    $0x10,%esp
 8048de9:	83 f8 01             	cmp    $0x1,%eax
 8048dec:	75 07                	jne    8048df5 <phase_4+0x25>
 8048dee:	83 7c 24 0c 00       	cmpl   $0x0,0xc(%esp)
 8048df3:	7f 05                	jg     8048dfa <phase_4+0x2a>
 8048df5:	e8 e3 09 00 00       	call   80497dd <explode_bomb>
 8048dfa:	83 ec 0c             	sub    $0xc,%esp
 8048dfd:	ff 74 24 18          	pushl  0x18(%esp)
 8048e01:	e8 93 ff ff ff       	call   8048d99 <func4>
 8048e06:	83 c4 10             	add    $0x10,%esp
 8048e09:	3d 20 b5 00 00       	cmp    $0xb520,%eax
 8048e0e:	74 05                	je     8048e15 <phase_4+0x45>
 8048e10:	e8 c8 09 00 00       	call   80497dd <explode_bomb>
 8048e15:	83 c4 1c             	add    $0x1c,%esp
 8048e18:	c3                   	ret    

08048e19 <phase_5>:
 8048e19:	83 ec 1c             	sub    $0x1c,%esp
 8048e1c:	8d 44 24 08          	lea    0x8(%esp),%eax
 8048e20:	50                   	push   %eax
 8048e21:	8d 44 24 10          	lea    0x10(%esp),%eax
 8048e25:	50                   	push   %eax
 8048e26:	68 98 9f 04 08       	push   $0x8049f98
 8048e2b:	ff 74 24 2c          	pushl  0x2c(%esp)
 8048e2f:	e8 9c fa ff ff       	call   80488d0 <__isoc99_sscanf@plt>
 8048e34:	83 c4 10             	add    $0x10,%esp
 8048e37:	83 f8 01             	cmp    $0x1,%eax
 8048e3a:	7f 05                	jg     8048e41 <phase_5+0x28>
 8048e3c:	e8 9c 09 00 00       	call   80497dd <explode_bomb>
 8048e41:	8b 44 24 0c          	mov    0xc(%esp),%eax
 8048e45:	83 e0 0f             	and    $0xf,%eax
 8048e48:	89 44 24 0c          	mov    %eax,0xc(%esp)
 8048e4c:	83 f8 0f             	cmp    $0xf,%eax
 8048e4f:	74 2e                	je     8048e7f <phase_5+0x66>
 8048e51:	b9 00 00 00 00       	mov    $0x0,%ecx
 8048e56:	ba 00 00 00 00       	mov    $0x0,%edx
 8048e5b:	83 c2 01             	add    $0x1,%edx
 8048e5e:	8b 04 85 40 9c 04 08 	mov    0x8049c40(,%eax,4),%eax
 8048e65:	01 c1                	add    %eax,%ecx
 8048e67:	83 f8 0f             	cmp    $0xf,%eax
 8048e6a:	75 ef                	jne    8048e5b <phase_5+0x42>
 8048e6c:	c7 44 24 0c 0f 00 00 	movl   $0xf,0xc(%esp)
 8048e73:	00 
 8048e74:	83 fa 0a             	cmp    $0xa,%edx
 8048e77:	75 06                	jne    8048e7f <phase_5+0x66>
 8048e79:	3b 4c 24 08          	cmp    0x8(%esp),%ecx
 8048e7d:	74 05                	je     8048e84 <phase_5+0x6b>
 8048e7f:	e8 59 09 00 00       	call   80497dd <explode_bomb>
 8048e84:	83 c4 1c             	add    $0x1c,%esp
 8048e87:	c3                   	ret    

08048e88 <fun6>:
 8048e88:	56                   	push   %esi
 8048e89:	53                   	push   %ebx
 8048e8a:	8b 44 24 0c          	mov    0xc(%esp),%eax
 8048e8e:	8b 70 08             	mov    0x8(%eax),%esi
 8048e91:	c7 40 08 00 00 00 00 	movl   $0x0,0x8(%eax)
 8048e98:	85 f6                	test   %esi,%esi
 8048e9a:	75 2c                	jne    8048ec8 <fun6+0x40>
 8048e9c:	eb 3c                	jmp    8048eda <fun6+0x52>
 8048e9e:	89 d1                	mov    %edx,%ecx
 8048ea0:	8b 51 08             	mov    0x8(%ecx),%edx
 8048ea3:	85 d2                	test   %edx,%edx
 8048ea5:	74 04                	je     8048eab <fun6+0x23>
 8048ea7:	39 1a                	cmp    %ebx,(%edx)
 8048ea9:	7f f3                	jg     8048e9e <fun6+0x16>
 8048eab:	39 d1                	cmp    %edx,%ecx
 8048ead:	74 05                	je     8048eb4 <fun6+0x2c>
 8048eaf:	89 71 08             	mov    %esi,0x8(%ecx)
 8048eb2:	eb 08                	jmp    8048ebc <fun6+0x34>
 8048eb4:	89 f0                	mov    %esi,%eax
 8048eb6:	eb 04                	jmp    8048ebc <fun6+0x34>
 8048eb8:	89 c2                	mov    %eax,%edx
 8048eba:	89 f0                	mov    %esi,%eax
 8048ebc:	8b 4e 08             	mov    0x8(%esi),%ecx
 8048ebf:	89 56 08             	mov    %edx,0x8(%esi)
 8048ec2:	85 c9                	test   %ecx,%ecx
 8048ec4:	74 14                	je     8048eda <fun6+0x52>
 8048ec6:	89 ce                	mov    %ecx,%esi
 8048ec8:	85 c0                	test   %eax,%eax
 8048eca:	74 ec                	je     8048eb8 <fun6+0x30>
 8048ecc:	8b 1e                	mov    (%esi),%ebx
 8048ece:	89 c1                	mov    %eax,%ecx
 8048ed0:	39 18                	cmp    %ebx,(%eax)
 8048ed2:	7f cc                	jg     8048ea0 <fun6+0x18>
 8048ed4:	89 c2                	mov    %eax,%edx
 8048ed6:	89 f0                	mov    %esi,%eax
 8048ed8:	eb e2                	jmp    8048ebc <fun6+0x34>
 8048eda:	5b                   	pop    %ebx
 8048edb:	5e                   	pop    %esi
 8048edc:	c3                   	ret    

08048edd <phase_6>:
 8048edd:	83 ec 10             	sub    $0x10,%esp
 8048ee0:	6a 0a                	push   $0xa
 8048ee2:	6a 00                	push   $0x0
 8048ee4:	ff 74 24 1c          	pushl  0x1c(%esp)
 8048ee8:	e8 63 fa ff ff       	call   8048950 <strtol@plt>
 8048eed:	a3 b4 b2 04 08       	mov    %eax,0x804b2b4
 8048ef2:	c7 04 24 b4 b2 04 08 	movl   $0x804b2b4,(%esp)
 8048ef9:	e8 8a ff ff ff       	call   8048e88 <fun6>
 8048efe:	83 c4 10             	add    $0x10,%esp
 8048f01:	ba 08 00 00 00       	mov    $0x8,%edx
 8048f06:	8b 40 08             	mov    0x8(%eax),%eax
 8048f09:	83 ea 01             	sub    $0x1,%edx
 8048f0c:	75 f8                	jne    8048f06 <phase_6+0x29>
 8048f0e:	8b 0d b4 b2 04 08    	mov    0x804b2b4,%ecx
 8048f14:	39 08                	cmp    %ecx,(%eax)
 8048f16:	74 05                	je     8048f1d <phase_6+0x40>
 8048f18:	e8 c0 08 00 00       	call   80497dd <explode_bomb>
 8048f1d:	83 c4 0c             	add    $0xc,%esp
 8048f20:	c3                   	ret    

08048f21 <fun7>:
 8048f21:	53                   	push   %ebx
 8048f22:	83 ec 08             	sub    $0x8,%esp
 8048f25:	8b 54 24 10          	mov    0x10(%esp),%edx
 8048f29:	8b 4c 24 14          	mov    0x14(%esp),%ecx
 8048f2d:	85 d2                	test   %edx,%edx
 8048f2f:	74 37                	je     8048f68 <fun7+0x47>
 8048f31:	8b 1a                	mov    (%edx),%ebx
 8048f33:	39 cb                	cmp    %ecx,%ebx
 8048f35:	7e 13                	jle    8048f4a <fun7+0x29>
 8048f37:	83 ec 08             	sub    $0x8,%esp
 8048f3a:	51                   	push   %ecx
 8048f3b:	ff 72 04             	pushl  0x4(%edx)
 8048f3e:	e8 de ff ff ff       	call   8048f21 <fun7>
 8048f43:	83 c4 10             	add    $0x10,%esp
 8048f46:	01 c0                	add    %eax,%eax
 8048f48:	eb 23                	jmp    8048f6d <fun7+0x4c>
 8048f4a:	b8 00 00 00 00       	mov    $0x0,%eax
 8048f4f:	39 cb                	cmp    %ecx,%ebx
 8048f51:	74 1a                	je     8048f6d <fun7+0x4c>
 8048f53:	83 ec 08             	sub    $0x8,%esp
 8048f56:	51                   	push   %ecx
 8048f57:	ff 72 08             	pushl  0x8(%edx)
 8048f5a:	e8 c2 ff ff ff       	call   8048f21 <fun7>
 8048f5f:	83 c4 10             	add    $0x10,%esp
 8048f62:	8d 44 00 01          	lea    0x1(%eax,%eax,1),%eax
 8048f66:	eb 05                	jmp    8048f6d <fun7+0x4c>
 8048f68:	b8 ff ff ff ff       	mov    $0xffffffff,%eax
 8048f6d:	83 c4 08             	add    $0x8,%esp
 8048f70:	5b                   	pop    %ebx
 8048f71:	c3                   	ret    

08048f72 <secret_phase>:
 8048f72:	53                   	push   %ebx
 8048f73:	83 ec 08             	sub    $0x8,%esp
 8048f76:	e8 da 08 00 00       	call   8049855 <read_line>
 8048f7b:	83 ec 04             	sub    $0x4,%esp
 8048f7e:	6a 0a                	push   $0xa
 8048f80:	6a 00                	push   $0x0
 8048f82:	50                   	push   %eax
 8048f83:	e8 c8 f9 ff ff       	call   8048950 <strtol@plt>
 8048f88:	89 c3                	mov    %eax,%ebx
 8048f8a:	8d 40 ff             	lea    -0x1(%eax),%eax
 8048f8d:	83 c4 10             	add    $0x10,%esp
 8048f90:	3d e8 03 00 00       	cmp    $0x3e8,%eax
 8048f95:	76 05                	jbe    8048f9c <secret_phase+0x2a>
 8048f97:	e8 41 08 00 00       	call   80497dd <explode_bomb>
 8048f9c:	83 ec 08             	sub    $0x8,%esp
 8048f9f:	53                   	push   %ebx
 8048fa0:	68 00 b2 04 08       	push   $0x804b200
 8048fa5:	e8 77 ff ff ff       	call   8048f21 <fun7>
 8048faa:	83 c4 10             	add    $0x10,%esp
 8048fad:	83 f8 05             	cmp    $0x5,%eax
 8048fb0:	74 05                	je     8048fb7 <secret_phase+0x45>
 8048fb2:	e8 26 08 00 00       	call   80497dd <explode_bomb>
 8048fb7:	83 ec 0c             	sub    $0xc,%esp
 8048fba:	68 b8 9b 04 08       	push   $0x8049bb8
 8048fbf:	e8 9c f8 ff ff       	call   8048860 <puts@plt>
 8048fc4:	e8 53 09 00 00       	call   804991c <phase_defused>
 8048fc9:	83 c4 18             	add    $0x18,%esp
 8048fcc:	5b                   	pop    %ebx
 8048fcd:	c3                   	ret    

08048fce <sig_handler>:
 8048fce:	83 ec 18             	sub    $0x18,%esp
 8048fd1:	68 80 9c 04 08       	push   $0x8049c80
 8048fd6:	e8 85 f8 ff ff       	call   8048860 <puts@plt>
 8048fdb:	c7 04 24 03 00 00 00 	movl   $0x3,(%esp)
 8048fe2:	e8 09 f8 ff ff       	call   80487f0 <sleep@plt>
 8048fe7:	c7 04 24 ac 9d 04 08 	movl   $0x8049dac,(%esp)
 8048fee:	e8 8d f7 ff ff       	call   8048780 <printf@plt>
 8048ff3:	83 c4 04             	add    $0x4,%esp
 8048ff6:	ff 35 a0 b7 04 08    	pushl  0x804b7a0
 8048ffc:	e8 8f f7 ff ff       	call   8048790 <fflush@plt>
 8049001:	c7 04 24 01 00 00 00 	movl   $0x1,(%esp)
 8049008:	e8 e3 f7 ff ff       	call   80487f0 <sleep@plt>
 804900d:	c7 04 24 b4 9d 04 08 	movl   $0x8049db4,(%esp)
 8049014:	e8 47 f8 ff ff       	call   8048860 <puts@plt>
 8049019:	c7 04 24 10 00 00 00 	movl   $0x10,(%esp)
 8049020:	e8 6b f8 ff ff       	call   8048890 <exit@plt>

08049025 <invalid_phase>:
 8049025:	83 ec 14             	sub    $0x14,%esp
 8049028:	ff 74 24 18          	pushl  0x18(%esp)
 804902c:	68 bc 9d 04 08       	push   $0x8049dbc
 8049031:	e8 4a f7 ff ff       	call   8048780 <printf@plt>
 8049036:	c7 04 24 08 00 00 00 	movl   $0x8,(%esp)
 804903d:	e8 4e f8 ff ff       	call   8048890 <exit@plt>

08049042 <string_length>:
 8049042:	8b 54 24 04          	mov    0x4(%esp),%edx
 8049046:	80 3a 00             	cmpb   $0x0,(%edx)
 8049049:	74 10                	je     804905b <string_length+0x19>
 804904b:	b8 00 00 00 00       	mov    $0x0,%eax
 8049050:	83 c0 01             	add    $0x1,%eax
 8049053:	80 3c 02 00          	cmpb   $0x0,(%edx,%eax,1)
 8049057:	75 f7                	jne    8049050 <string_length+0xe>
 8049059:	f3 c3                	repz ret 
 804905b:	b8 00 00 00 00       	mov    $0x0,%eax
 8049060:	c3                   	ret    

08049061 <strings_not_equal>:
 8049061:	57                   	push   %edi
 8049062:	56                   	push   %esi
 8049063:	53                   	push   %ebx
 8049064:	8b 5c 24 10          	mov    0x10(%esp),%ebx
 8049068:	8b 74 24 14          	mov    0x14(%esp),%esi
 804906c:	53                   	push   %ebx
 804906d:	e8 d0 ff ff ff       	call   8049042 <string_length>
 8049072:	89 c7                	mov    %eax,%edi
 8049074:	89 34 24             	mov    %esi,(%esp)
 8049077:	e8 c6 ff ff ff       	call   8049042 <string_length>
 804907c:	83 c4 04             	add    $0x4,%esp
 804907f:	ba 01 00 00 00       	mov    $0x1,%edx
 8049084:	39 c7                	cmp    %eax,%edi
 8049086:	75 38                	jne    80490c0 <strings_not_equal+0x5f>
 8049088:	0f b6 03             	movzbl (%ebx),%eax
 804908b:	84 c0                	test   %al,%al
 804908d:	74 1e                	je     80490ad <strings_not_equal+0x4c>
 804908f:	3a 06                	cmp    (%esi),%al
 8049091:	74 06                	je     8049099 <strings_not_equal+0x38>
 8049093:	eb 1f                	jmp    80490b4 <strings_not_equal+0x53>
 8049095:	3a 06                	cmp    (%esi),%al
 8049097:	75 22                	jne    80490bb <strings_not_equal+0x5a>
 8049099:	83 c3 01             	add    $0x1,%ebx
 804909c:	83 c6 01             	add    $0x1,%esi
 804909f:	0f b6 03             	movzbl (%ebx),%eax
 80490a2:	84 c0                	test   %al,%al
 80490a4:	75 ef                	jne    8049095 <strings_not_equal+0x34>
 80490a6:	ba 00 00 00 00       	mov    $0x0,%edx
 80490ab:	eb 13                	jmp    80490c0 <strings_not_equal+0x5f>
 80490ad:	ba 00 00 00 00       	mov    $0x0,%edx
 80490b2:	eb 0c                	jmp    80490c0 <strings_not_equal+0x5f>
 80490b4:	ba 01 00 00 00       	mov    $0x1,%edx
 80490b9:	eb 05                	jmp    80490c0 <strings_not_equal+0x5f>
 80490bb:	ba 01 00 00 00       	mov    $0x1,%edx
 80490c0:	89 d0                	mov    %edx,%eax
 80490c2:	5b                   	pop    %ebx
 80490c3:	5e                   	pop    %esi
 80490c4:	5f                   	pop    %edi
 80490c5:	c3                   	ret    

080490c6 <open_clientfd>:
 80490c6:	56                   	push   %esi
 80490c7:	53                   	push   %ebx
 80490c8:	83 ec 18             	sub    $0x18,%esp
 80490cb:	6a 00                	push   $0x0
 80490cd:	6a 01                	push   $0x1
 80490cf:	6a 02                	push   $0x2
 80490d1:	e8 5a f8 ff ff       	call   8048930 <socket@plt>
 80490d6:	89 c3                	mov    %eax,%ebx
 80490d8:	83 c4 10             	add    $0x10,%esp
 80490db:	85 c0                	test   %eax,%eax
 80490dd:	79 19                	jns    80490f8 <open_clientfd+0x32>
 80490df:	83 ec 0c             	sub    $0xc,%esp
 80490e2:	68 cd 9d 04 08       	push   $0x8049dcd
 80490e7:	e8 74 f7 ff ff       	call   8048860 <puts@plt>
 80490ec:	c7 04 24 08 00 00 00 	movl   $0x8,(%esp)
 80490f3:	e8 98 f7 ff ff       	call   8048890 <exit@plt>
 80490f8:	83 ec 0c             	sub    $0xc,%esp
 80490fb:	ff 74 24 2c          	pushl  0x2c(%esp)
 80490ff:	e8 3c f8 ff ff       	call   8048940 <gethostbyname@plt>
 8049104:	83 c4 10             	add    $0x10,%esp
 8049107:	85 c0                	test   %eax,%eax
 8049109:	75 19                	jne    8049124 <open_clientfd+0x5e>
 804910b:	83 ec 0c             	sub    $0xc,%esp
 804910e:	68 db 9d 04 08       	push   $0x8049ddb
 8049113:	e8 48 f7 ff ff       	call   8048860 <puts@plt>
 8049118:	c7 04 24 08 00 00 00 	movl   $0x8,(%esp)
 804911f:	e8 6c f7 ff ff       	call   8048890 <exit@plt>
 8049124:	89 e6                	mov    %esp,%esi
 8049126:	c7 04 24 00 00 00 00 	movl   $0x0,(%esp)
 804912d:	c7 44 24 04 00 00 00 	movl   $0x0,0x4(%esp)
 8049134:	00 
 8049135:	c7 44 24 08 00 00 00 	movl   $0x0,0x8(%esp)
 804913c:	00 
 804913d:	c7 44 24 0c 00 00 00 	movl   $0x0,0xc(%esp)
 8049144:	00 
 8049145:	66 c7 04 24 02 00    	movw   $0x2,(%esp)
 804914b:	83 ec 04             	sub    $0x4,%esp
 804914e:	ff 70 0c             	pushl  0xc(%eax)
 8049151:	8d 54 24 0c          	lea    0xc(%esp),%edx
 8049155:	52                   	push   %edx
 8049156:	8b 40 10             	mov    0x10(%eax),%eax
 8049159:	ff 30                	pushl  (%eax)
 804915b:	e8 c0 f6 ff ff       	call   8048820 <bcopy@plt>
 8049160:	0f b7 44 24 34       	movzwl 0x34(%esp),%eax
 8049165:	66 c1 c8 08          	ror    $0x8,%ax
 8049169:	66 89 44 24 12       	mov    %ax,0x12(%esp)
 804916e:	83 c4 0c             	add    $0xc,%esp
 8049171:	6a 10                	push   $0x10
 8049173:	56                   	push   %esi
 8049174:	53                   	push   %ebx
 8049175:	e8 e6 f7 ff ff       	call   8048960 <connect@plt>
 804917a:	83 c4 10             	add    $0x10,%esp
 804917d:	85 c0                	test   %eax,%eax
 804917f:	79 19                	jns    804919a <open_clientfd+0xd4>
 8049181:	83 ec 0c             	sub    $0xc,%esp
 8049184:	68 e9 9d 04 08       	push   $0x8049de9
 8049189:	e8 d2 f6 ff ff       	call   8048860 <puts@plt>
 804918e:	c7 04 24 08 00 00 00 	movl   $0x8,(%esp)
 8049195:	e8 f6 f6 ff ff       	call   8048890 <exit@plt>
 804919a:	89 d8                	mov    %ebx,%eax
 804919c:	83 c4 14             	add    $0x14,%esp
 804919f:	5b                   	pop    %ebx
 80491a0:	5e                   	pop    %esi
 80491a1:	c3                   	ret    

080491a2 <initialize_bomb>:
 80491a2:	83 ec 14             	sub    $0x14,%esp
 80491a5:	68 ce 8f 04 08       	push   $0x8048fce
 80491aa:	6a 02                	push   $0x2
 80491ac:	e8 2f f6 ff ff       	call   80487e0 <signal@plt>
 80491b1:	83 c4 08             	add    $0x8,%esp
 80491b4:	6a 50                	push   $0x50
 80491b6:	68 f7 9d 04 08       	push   $0x8049df7
 80491bb:	e8 06 ff ff ff       	call   80490c6 <open_clientfd>
 80491c0:	89 04 24             	mov    %eax,(%esp)
 80491c3:	e8 a8 f7 ff ff       	call   8048970 <close@plt>
 80491c8:	83 c4 1c             	add    $0x1c,%esp
 80491cb:	c3                   	ret    

080491cc <blank_line>:
 80491cc:	56                   	push   %esi
 80491cd:	53                   	push   %ebx
 80491ce:	83 ec 04             	sub    $0x4,%esp
 80491d1:	8b 74 24 10          	mov    0x10(%esp),%esi
 80491d5:	eb 14                	jmp    80491eb <blank_line+0x1f>
 80491d7:	e8 a4 f7 ff ff       	call   8048980 <__ctype_b_loc@plt>
 80491dc:	83 c6 01             	add    $0x1,%esi
 80491df:	0f be db             	movsbl %bl,%ebx
 80491e2:	8b 00                	mov    (%eax),%eax
 80491e4:	f6 44 58 01 20       	testb  $0x20,0x1(%eax,%ebx,2)
 80491e9:	74 0e                	je     80491f9 <blank_line+0x2d>
 80491eb:	0f b6 1e             	movzbl (%esi),%ebx
 80491ee:	84 db                	test   %bl,%bl
 80491f0:	75 e5                	jne    80491d7 <blank_line+0xb>
 80491f2:	b8 01 00 00 00       	mov    $0x1,%eax
 80491f7:	eb 05                	jmp    80491fe <blank_line+0x32>
 80491f9:	b8 00 00 00 00       	mov    $0x0,%eax
 80491fe:	83 c4 04             	add    $0x4,%esp
 8049201:	5b                   	pop    %ebx
 8049202:	5e                   	pop    %esi
 8049203:	c3                   	ret    

08049204 <skip>:
 8049204:	53                   	push   %ebx
 8049205:	83 ec 08             	sub    $0x8,%esp
 8049208:	83 ec 04             	sub    $0x4,%esp
 804920b:	ff 35 ac b7 04 08    	pushl  0x804b7ac
 8049211:	6a 50                	push   $0x50
 8049213:	a1 a8 b7 04 08       	mov    0x804b7a8,%eax
 8049218:	8d 04 80             	lea    (%eax,%eax,4),%eax
 804921b:	c1 e0 04             	shl    $0x4,%eax
 804921e:	05 c0 b7 04 08       	add    $0x804b7c0,%eax
 8049223:	50                   	push   %eax
 8049224:	e8 97 f5 ff ff       	call   80487c0 <fgets@plt>
 8049229:	89 c3                	mov    %eax,%ebx
 804922b:	83 c4 10             	add    $0x10,%esp
 804922e:	85 c0                	test   %eax,%eax
 8049230:	74 10                	je     8049242 <skip+0x3e>
 8049232:	83 ec 0c             	sub    $0xc,%esp
 8049235:	50                   	push   %eax
 8049236:	e8 91 ff ff ff       	call   80491cc <blank_line>
 804923b:	83 c4 10             	add    $0x10,%esp
 804923e:	85 c0                	test   %eax,%eax
 8049240:	75 c6                	jne    8049208 <skip+0x4>
 8049242:	89 d8                	mov    %ebx,%eax
 8049244:	83 c4 08             	add    $0x8,%esp
 8049247:	5b                   	pop    %ebx
 8049248:	c3                   	ret    

08049249 <writen>:
 8049249:	55                   	push   %ebp
 804924a:	57                   	push   %edi
 804924b:	56                   	push   %esi
 804924c:	53                   	push   %ebx
 804924d:	83 ec 0c             	sub    $0xc,%esp
 8049250:	8b 7c 24 20          	mov    0x20(%esp),%edi
 8049254:	8b 74 24 24          	mov    0x24(%esp),%esi
 8049258:	8b 6c 24 28          	mov    0x28(%esp),%ebp
 804925c:	85 ed                	test   %ebp,%ebp
 804925e:	74 29                	je     8049289 <writen+0x40>
 8049260:	89 eb                	mov    %ebp,%ebx
 8049262:	83 ec 04             	sub    $0x4,%esp
 8049265:	53                   	push   %ebx
 8049266:	56                   	push   %esi
 8049267:	57                   	push   %edi
 8049268:	e8 53 f6 ff ff       	call   80488c0 <write@plt>
 804926d:	83 c4 10             	add    $0x10,%esp
 8049270:	85 c0                	test   %eax,%eax
 8049272:	7f 0f                	jg     8049283 <writen+0x3a>
 8049274:	e8 77 f6 ff ff       	call   80488f0 <__errno_location@plt>
 8049279:	83 38 04             	cmpl   $0x4,(%eax)
 804927c:	75 0f                	jne    804928d <writen+0x44>
 804927e:	b8 00 00 00 00       	mov    $0x0,%eax
 8049283:	01 c6                	add    %eax,%esi
 8049285:	29 c3                	sub    %eax,%ebx
 8049287:	75 d9                	jne    8049262 <writen+0x19>
 8049289:	89 e8                	mov    %ebp,%eax
 804928b:	eb 05                	jmp    8049292 <writen+0x49>
 804928d:	b8 ff ff ff ff       	mov    $0xffffffff,%eax
 8049292:	83 c4 0c             	add    $0xc,%esp
 8049295:	5b                   	pop    %ebx
 8049296:	5e                   	pop    %esi
 8049297:	5f                   	pop    %edi
 8049298:	5d                   	pop    %ebp
 8049299:	c3                   	ret    

0804929a <send_msg>:
 804929a:	55                   	push   %ebp
 804929b:	57                   	push   %edi
 804929c:	56                   	push   %esi
 804929d:	53                   	push   %ebx
 804929e:	81 ec 80 24 00 00    	sub    $0x2480,%esp
 80492a4:	6a 00                	push   $0x0
 80492a6:	6a 01                	push   $0x1
 80492a8:	6a 02                	push   $0x2
 80492aa:	e8 81 f6 ff ff       	call   8048930 <socket@plt>
 80492af:	89 44 24 1c          	mov    %eax,0x1c(%esp)
 80492b3:	83 c4 10             	add    $0x10,%esp
 80492b6:	85 c0                	test   %eax,%eax
 80492b8:	79 30                	jns    80492ea <send_msg+0x50>
 80492ba:	83 ec 04             	sub    $0x4,%esp
 80492bd:	68 17 9e 04 08       	push   $0x8049e17
 80492c2:	68 61 9a 04 08       	push   $0x8049a61
 80492c7:	ff 35 a0 b7 04 08    	pushl  0x804b7a0
 80492cd:	e8 de f5 ff ff       	call   80488b0 <fprintf@plt>
 80492d2:	83 c4 04             	add    $0x4,%esp
 80492d5:	ff 74 24 18          	pushl  0x18(%esp)
 80492d9:	e8 92 f6 ff ff       	call   8048970 <close@plt>
 80492de:	c7 04 24 01 00 00 00 	movl   $0x1,(%esp)
 80492e5:	e8 a6 f5 ff ff       	call   8048890 <exit@plt>
 80492ea:	c7 84 24 64 24 00 00 	movl   $0x0,0x2464(%esp)
 80492f1:	00 00 00 00 
 80492f5:	c7 84 24 68 24 00 00 	movl   $0x0,0x2468(%esp)
 80492fc:	00 00 00 00 
 8049300:	c7 84 24 6c 24 00 00 	movl   $0x0,0x246c(%esp)
 8049307:	00 00 00 00 
 804930b:	66 c7 84 24 60 24 00 	movw   $0x2,0x2460(%esp)
 8049312:	00 02 00 
 8049315:	66 c7 84 24 62 24 00 	movw   $0x7ac8,0x2462(%esp)
 804931c:	00 c8 7a 
 804931f:	83 ec 04             	sub    $0x4,%esp
 8049322:	8d 84 24 68 24 00 00 	lea    0x2468(%esp),%eax
 8049329:	50                   	push   %eax
 804932a:	68 f7 9d 04 08       	push   $0x8049df7
 804932f:	6a 02                	push   $0x2
 8049331:	e8 7a f4 ff ff       	call   80487b0 <inet_pton@plt>
 8049336:	83 c4 10             	add    $0x10,%esp
 8049339:	85 c0                	test   %eax,%eax
 804933b:	79 3b                	jns    8049378 <send_msg+0xde>
 804933d:	83 ec 04             	sub    $0x4,%esp
 8049340:	68 8b 9e 04 08       	push   $0x8049e8b
 8049345:	68 61 9a 04 08       	push   $0x8049a61
 804934a:	ff 35 a0 b7 04 08    	pushl  0x804b7a0
 8049350:	e8 5b f5 ff ff       	call   80488b0 <fprintf@plt>
 8049355:	83 c4 10             	add    $0x10,%esp
 8049358:	83 7c 24 0c 00       	cmpl   $0x0,0xc(%esp)
 804935d:	74 0f                	je     804936e <send_msg+0xd4>
 804935f:	83 ec 0c             	sub    $0xc,%esp
 8049362:	ff 74 24 18          	pushl  0x18(%esp)
 8049366:	e8 05 f6 ff ff       	call   8048970 <close@plt>
 804936b:	83 c4 10             	add    $0x10,%esp
 804936e:	83 ec 0c             	sub    $0xc,%esp
 8049371:	6a 01                	push   $0x1
 8049373:	e8 18 f5 ff ff       	call   8048890 <exit@plt>
 8049378:	83 ec 04             	sub    $0x4,%esp
 804937b:	6a 10                	push   $0x10
 804937d:	8d 84 24 68 24 00 00 	lea    0x2468(%esp),%eax
 8049384:	50                   	push   %eax
 8049385:	ff 74 24 18          	pushl  0x18(%esp)
 8049389:	e8 d2 f5 ff ff       	call   8048960 <connect@plt>
 804938e:	83 c4 10             	add    $0x10,%esp
 8049391:	85 c0                	test   %eax,%eax
 8049393:	79 3b                	jns    80493d0 <send_msg+0x136>
 8049395:	83 ec 04             	sub    $0x4,%esp
 8049398:	68 24 9e 04 08       	push   $0x8049e24
 804939d:	68 61 9a 04 08       	push   $0x8049a61
 80493a2:	ff 35 a0 b7 04 08    	pushl  0x804b7a0
 80493a8:	e8 03 f5 ff ff       	call   80488b0 <fprintf@plt>
 80493ad:	83 c4 10             	add    $0x10,%esp
 80493b0:	83 7c 24 0c 00       	cmpl   $0x0,0xc(%esp)
 80493b5:	74 0f                	je     80493c6 <send_msg+0x12c>
 80493b7:	83 ec 0c             	sub    $0xc,%esp
 80493ba:	ff 74 24 18          	pushl  0x18(%esp)
 80493be:	e8 ad f5 ff ff       	call   8048970 <close@plt>
 80493c3:	83 c4 10             	add    $0x10,%esp
 80493c6:	83 ec 0c             	sub    $0xc,%esp
 80493c9:	6a 01                	push   $0x1
 80493cb:	e8 c0 f4 ff ff       	call   8048890 <exit@plt>
 80493d0:	8d 74 24 60          	lea    0x60(%esp),%esi
 80493d4:	c7 44 24 60 53 75 62 	movl   $0x6a627553,0x60(%esp)
 80493db:	6a 
 80493dc:	c7 44 24 64 65 63 74 	movl   $0x3a746365,0x64(%esp)
 80493e3:	3a 
 80493e4:	c7 44 24 68 20 42 6f 	movl   $0x6d6f4220,0x68(%esp)
 80493eb:	6d 
 80493ec:	c7 44 24 6c 62 20 6e 	movl   $0x6f6e2062,0x6c(%esp)
 80493f3:	6f 
 80493f4:	c7 44 24 70 74 69 66 	movl   $0x69666974,0x70(%esp)
 80493fb:	69 
 80493fc:	c7 44 24 74 63 61 74 	movl   $0x69746163,0x74(%esp)
 8049403:	69 
 8049404:	c7 44 24 78 6f 6e 0a 	movl   $0xa6e6f,0x78(%esp)
 804940b:	00 
 804940c:	83 ec 08             	sub    $0x8,%esp
 804940f:	56                   	push   %esi
 8049410:	8d 9c 24 6c 04 00 00 	lea    0x46c(%esp),%ebx
 8049417:	53                   	push   %ebx
 8049418:	e8 13 f4 ff ff       	call   8048830 <strcat@plt>
 804941d:	66 c7 44 24 70 0a 00 	movw   $0xa,0x70(%esp)
 8049424:	83 c4 08             	add    $0x8,%esp
 8049427:	56                   	push   %esi
 8049428:	53                   	push   %ebx
 8049429:	e8 02 f4 ff ff       	call   8048830 <strcat@plt>
 804942e:	c7 04 24 00 00 00 00 	movl   $0x0,(%esp)
 8049435:	e8 36 f3 ff ff       	call   8048770 <cuserid@plt>
 804943a:	83 c4 10             	add    $0x10,%esp
 804943d:	85 c0                	test   %eax,%eax
 804943f:	75 16                	jne    8049457 <send_msg+0x1bd>
 8049441:	c7 44 24 10 6e 6f 62 	movl   $0x6f626f6e,0x10(%esp)
 8049448:	6f 
 8049449:	66 c7 44 24 14 64 79 	movw   $0x7964,0x14(%esp)
 8049450:	c6 44 24 16 00       	movb   $0x0,0x16(%esp)
 8049455:	eb 11                	jmp    8049468 <send_msg+0x1ce>
 8049457:	83 ec 08             	sub    $0x8,%esp
 804945a:	50                   	push   %eax
 804945b:	8d 44 24 1c          	lea    0x1c(%esp),%eax
 804945f:	50                   	push   %eax
 8049460:	e8 db f3 ff ff       	call   8048840 <strcpy@plt>
 8049465:	83 c4 10             	add    $0x10,%esp
 8049468:	8b 15 a8 b7 04 08    	mov    0x804b7a8,%edx
 804946e:	b8 06 9e 04 08       	mov    $0x8049e06,%eax
 8049473:	83 bc 24 90 24 00 00 	cmpl   $0x0,0x2490(%esp)
 804947a:	00 
 804947b:	75 05                	jne    8049482 <send_msg+0x1e8>
 804947d:	b8 0e 9e 04 08       	mov    $0x8049e0e,%eax
 8049482:	83 ec 04             	sub    $0x4,%esp
 8049485:	52                   	push   %edx
 8049486:	50                   	push   %eax
 8049487:	8d 44 24 1c          	lea    0x1c(%esp),%eax
 804948b:	50                   	push   %eax
 804948c:	ff 35 40 b7 04 08    	pushl  0x804b740
 8049492:	68 40 b3 04 08       	push   $0x804b340
 8049497:	68 32 9e 04 08       	push   $0x8049e32
 804949c:	8d 5c 24 7c          	lea    0x7c(%esp),%ebx
 80494a0:	53                   	push   %ebx
 80494a1:	e8 6a f4 ff ff       	call   8048910 <sprintf@plt>
 80494a6:	83 c4 18             	add    $0x18,%esp
 80494a9:	53                   	push   %ebx
 80494aa:	8d 84 24 6c 04 00 00 	lea    0x46c(%esp),%eax
 80494b1:	50                   	push   %eax
 80494b2:	e8 79 f3 ff ff       	call   8048830 <strcat@plt>
 80494b7:	83 c4 10             	add    $0x10,%esp
 80494ba:	83 3d a8 b7 04 08 00 	cmpl   $0x0,0x804b7a8
 80494c1:	7e 50                	jle    8049513 <send_msg+0x279>
 80494c3:	be c0 b7 04 08       	mov    $0x804b7c0,%esi
 80494c8:	bb 00 00 00 00       	mov    $0x0,%ebx
 80494cd:	8d 6c 24 10          	lea    0x10(%esp),%ebp
 80494d1:	8d 7c 24 60          	lea    0x60(%esp),%edi
 80494d5:	83 c3 01             	add    $0x1,%ebx
 80494d8:	83 ec 04             	sub    $0x4,%esp
 80494db:	56                   	push   %esi
 80494dc:	53                   	push   %ebx
 80494dd:	55                   	push   %ebp
 80494de:	ff 35 40 b7 04 08    	pushl  0x804b740
 80494e4:	68 40 b3 04 08       	push   $0x804b340
 80494e9:	68 4e 9e 04 08       	push   $0x8049e4e
 80494ee:	57                   	push   %edi
 80494ef:	e8 1c f4 ff ff       	call   8048910 <sprintf@plt>
 80494f4:	83 c4 18             	add    $0x18,%esp
 80494f7:	57                   	push   %edi
 80494f8:	8d 84 24 6c 04 00 00 	lea    0x46c(%esp),%eax
 80494ff:	50                   	push   %eax
 8049500:	e8 2b f3 ff ff       	call   8048830 <strcat@plt>
 8049505:	83 c6 50             	add    $0x50,%esi
 8049508:	83 c4 10             	add    $0x10,%esp
 804950b:	39 1d a8 b7 04 08    	cmp    %ebx,0x804b7a8
 8049511:	7f c2                	jg     80494d5 <send_msg+0x23b>
 8049513:	8d 9c 24 60 04 00 00 	lea    0x460(%esp),%ebx
 804951a:	be ff ff ff ff       	mov    $0xffffffff,%esi
 804951f:	89 df                	mov    %ebx,%edi
 8049521:	bd 00 00 00 00       	mov    $0x0,%ebp
 8049526:	89 f1                	mov    %esi,%ecx
 8049528:	89 e8                	mov    %ebp,%eax
 804952a:	f2 ae                	repnz scas %es:(%edi),%al
 804952c:	f7 d1                	not    %ecx
 804952e:	83 e9 01             	sub    $0x1,%ecx
 8049531:	83 ec 04             	sub    $0x4,%esp
 8049534:	51                   	push   %ecx
 8049535:	53                   	push   %ebx
 8049536:	ff 74 24 18          	pushl  0x18(%esp)
 804953a:	e8 0a fd ff ff       	call   8049249 <writen>
 804953f:	89 c2                	mov    %eax,%edx
 8049541:	89 df                	mov    %ebx,%edi
 8049543:	89 f1                	mov    %esi,%ecx
 8049545:	89 e8                	mov    %ebp,%eax
 8049547:	f2 ae                	repnz scas %es:(%edi),%al
 8049549:	f7 d1                	not    %ecx
 804954b:	83 e9 01             	sub    $0x1,%ecx
 804954e:	83 c4 10             	add    $0x10,%esp
 8049551:	39 ca                	cmp    %ecx,%edx
 8049553:	73 3b                	jae    8049590 <send_msg+0x2f6>
 8049555:	83 ec 04             	sub    $0x4,%esp
 8049558:	68 6a 9e 04 08       	push   $0x8049e6a
 804955d:	68 61 9a 04 08       	push   $0x8049a61
 8049562:	ff 35 a0 b7 04 08    	pushl  0x804b7a0
 8049568:	e8 43 f3 ff ff       	call   80488b0 <fprintf@plt>
 804956d:	83 c4 10             	add    $0x10,%esp
 8049570:	83 7c 24 0c 00       	cmpl   $0x0,0xc(%esp)
 8049575:	74 0f                	je     8049586 <send_msg+0x2ec>
 8049577:	83 ec 0c             	sub    $0xc,%esp
 804957a:	ff 74 24 18          	pushl  0x18(%esp)
 804957e:	e8 ed f3 ff ff       	call   8048970 <close@plt>
 8049583:	83 c4 10             	add    $0x10,%esp
 8049586:	83 ec 0c             	sub    $0xc,%esp
 8049589:	6a 01                	push   $0x1
 804958b:	e8 00 f3 ff ff       	call   8048890 <exit@plt>
 8049590:	83 ec 0c             	sub    $0xc,%esp
 8049593:	ff 74 24 18          	pushl  0x18(%esp)
 8049597:	e8 d4 f3 ff ff       	call   8048970 <close@plt>
 804959c:	81 c4 8c 24 00 00    	add    $0x248c,%esp
 80495a2:	5b                   	pop    %ebx
 80495a3:	5e                   	pop    %esi
 80495a4:	5f                   	pop    %edi
 80495a5:	5d                   	pop    %ebp
 80495a6:	c3                   	ret    

080495a7 <send_msg_2>:
 80495a7:	55                   	push   %ebp
 80495a8:	57                   	push   %edi
 80495a9:	56                   	push   %esi
 80495aa:	53                   	push   %ebx
 80495ab:	83 ec 78             	sub    $0x78,%esp
 80495ae:	6a 00                	push   $0x0
 80495b0:	e8 eb f1 ff ff       	call   80487a0 <dup@plt>
 80495b5:	89 44 24 1c          	mov    %eax,0x1c(%esp)
 80495b9:	83 c4 10             	add    $0x10,%esp
 80495bc:	83 f8 ff             	cmp    $0xffffffff,%eax
 80495bf:	75 19                	jne    80495da <send_msg_2+0x33>
 80495c1:	83 ec 0c             	sub    $0xc,%esp
 80495c4:	68 7d 9e 04 08       	push   $0x8049e7d
 80495c9:	e8 92 f2 ff ff       	call   8048860 <puts@plt>
 80495ce:	c7 04 24 08 00 00 00 	movl   $0x8,(%esp)
 80495d5:	e8 b6 f2 ff ff       	call   8048890 <exit@plt>
 80495da:	83 ec 0c             	sub    $0xc,%esp
 80495dd:	6a 00                	push   $0x0
 80495df:	e8 8c f3 ff ff       	call   8048970 <close@plt>
 80495e4:	83 c4 10             	add    $0x10,%esp
 80495e7:	83 f8 ff             	cmp    $0xffffffff,%eax
 80495ea:	75 19                	jne    8049605 <send_msg_2+0x5e>
 80495ec:	83 ec 0c             	sub    $0xc,%esp
 80495ef:	68 91 9e 04 08       	push   $0x8049e91
 80495f4:	e8 67 f2 ff ff       	call   8048860 <puts@plt>
 80495f9:	c7 04 24 08 00 00 00 	movl   $0x8,(%esp)
 8049600:	e8 8b f2 ff ff       	call   8048890 <exit@plt>
 8049605:	e8 16 f3 ff ff       	call   8048920 <tmpfile@plt>
 804960a:	89 c7                	mov    %eax,%edi
 804960c:	85 c0                	test   %eax,%eax
 804960e:	75 19                	jne    8049629 <send_msg_2+0x82>
 8049610:	83 ec 0c             	sub    $0xc,%esp
 8049613:	68 a4 9e 04 08       	push   $0x8049ea4
 8049618:	e8 43 f2 ff ff       	call   8048860 <puts@plt>
 804961d:	c7 04 24 08 00 00 00 	movl   $0x8,(%esp)
 8049624:	e8 67 f2 ff ff       	call   8048890 <exit@plt>
 8049629:	50                   	push   %eax
 804962a:	6a 1b                	push   $0x1b
 804962c:	6a 01                	push   $0x1
 804962e:	68 b9 9e 04 08       	push   $0x8049eb9
 8049633:	e8 d8 f1 ff ff       	call   8048810 <fwrite@plt>
 8049638:	83 c4 08             	add    $0x8,%esp
 804963b:	57                   	push   %edi
 804963c:	6a 0a                	push   $0xa
 804963e:	e8 bd f2 ff ff       	call   8048900 <fputc@plt>
 8049643:	c7 04 24 00 00 00 00 	movl   $0x0,(%esp)
 804964a:	e8 21 f1 ff ff       	call   8048770 <cuserid@plt>
 804964f:	83 c4 10             	add    $0x10,%esp
 8049652:	85 c0                	test   %eax,%eax
 8049654:	75 16                	jne    804966c <send_msg_2+0xc5>
 8049656:	c7 44 24 10 6e 6f 62 	movl   $0x6f626f6e,0x10(%esp)
 804965d:	6f 
 804965e:	66 c7 44 24 14 64 79 	movw   $0x7964,0x14(%esp)
 8049665:	c6 44 24 16 00       	movb   $0x0,0x16(%esp)
 804966a:	eb 11                	jmp    804967d <send_msg_2+0xd6>
 804966c:	83 ec 08             	sub    $0x8,%esp
 804966f:	50                   	push   %eax
 8049670:	8d 44 24 1c          	lea    0x1c(%esp),%eax
 8049674:	50                   	push   %eax
 8049675:	e8 c6 f1 ff ff       	call   8048840 <strcpy@plt>
 804967a:	83 c4 10             	add    $0x10,%esp
 804967d:	8b 15 a8 b7 04 08    	mov    0x804b7a8,%edx
 8049683:	b8 06 9e 04 08       	mov    $0x8049e06,%eax
 8049688:	83 bc 24 80 00 00 00 	cmpl   $0x0,0x80(%esp)
 804968f:	00 
 8049690:	75 05                	jne    8049697 <send_msg_2+0xf0>
 8049692:	b8 0e 9e 04 08       	mov    $0x8049e0e,%eax
 8049697:	83 ec 04             	sub    $0x4,%esp
 804969a:	52                   	push   %edx
 804969b:	50                   	push   %eax
 804969c:	8d 44 24 1c          	lea    0x1c(%esp),%eax
 80496a0:	50                   	push   %eax
 80496a1:	ff 35 40 b7 04 08    	pushl  0x804b740
 80496a7:	68 40 b3 04 08       	push   $0x804b340
 80496ac:	68 32 9e 04 08       	push   $0x8049e32
 80496b1:	57                   	push   %edi
 80496b2:	e8 f9 f1 ff ff       	call   80488b0 <fprintf@plt>
 80496b7:	83 c4 20             	add    $0x20,%esp
 80496ba:	83 3d a8 b7 04 08 00 	cmpl   $0x0,0x804b7a8
 80496c1:	7e 3b                	jle    80496fe <send_msg_2+0x157>
 80496c3:	be c0 b7 04 08       	mov    $0x804b7c0,%esi
 80496c8:	bb 00 00 00 00       	mov    $0x0,%ebx
 80496cd:	8d 6c 24 10          	lea    0x10(%esp),%ebp
 80496d1:	83 c3 01             	add    $0x1,%ebx
 80496d4:	83 ec 04             	sub    $0x4,%esp
 80496d7:	56                   	push   %esi
 80496d8:	53                   	push   %ebx
 80496d9:	55                   	push   %ebp
 80496da:	ff 35 40 b7 04 08    	pushl  0x804b740
 80496e0:	68 40 b3 04 08       	push   $0x804b340
 80496e5:	68 4e 9e 04 08       	push   $0x8049e4e
 80496ea:	57                   	push   %edi
 80496eb:	e8 c0 f1 ff ff       	call   80488b0 <fprintf@plt>
 80496f0:	83 c6 50             	add    $0x50,%esi
 80496f3:	83 c4 20             	add    $0x20,%esp
 80496f6:	39 1d a8 b7 04 08    	cmp    %ebx,0x804b7a8
 80496fc:	7f d3                	jg     80496d1 <send_msg_2+0x12a>
 80496fe:	83 ec 0c             	sub    $0xc,%esp
 8049701:	57                   	push   %edi
 8049702:	e8 f9 f0 ff ff       	call   8048800 <rewind@plt>
 8049707:	c7 04 24 d5 9e 04 08 	movl   $0x8049ed5,(%esp)
 804970e:	68 df 9e 04 08       	push   $0x8049edf
 8049713:	68 e7 9e 04 08       	push   $0x8049ee7
 8049718:	68 fe 9e 04 08       	push   $0x8049efe
 804971d:	68 00 be 04 08       	push   $0x804be00
 8049722:	e8 e9 f1 ff ff       	call   8048910 <sprintf@plt>
 8049727:	83 c4 14             	add    $0x14,%esp
 804972a:	68 00 be 04 08       	push   $0x804be00
 804972f:	e8 3c f1 ff ff       	call   8048870 <system@plt>
 8049734:	83 c4 10             	add    $0x10,%esp
 8049737:	85 c0                	test   %eax,%eax
 8049739:	74 19                	je     8049754 <send_msg_2+0x1ad>
 804973b:	83 ec 0c             	sub    $0xc,%esp
 804973e:	68 07 9f 04 08       	push   $0x8049f07
 8049743:	e8 18 f1 ff ff       	call   8048860 <puts@plt>
 8049748:	c7 04 24 08 00 00 00 	movl   $0x8,(%esp)
 804974f:	e8 3c f1 ff ff       	call   8048890 <exit@plt>
 8049754:	83 ec 0c             	sub    $0xc,%esp
 8049757:	57                   	push   %edi
 8049758:	e8 73 f0 ff ff       	call   80487d0 <fclose@plt>
 804975d:	83 c4 10             	add    $0x10,%esp
 8049760:	85 c0                	test   %eax,%eax
 8049762:	74 19                	je     804977d <send_msg_2+0x1d6>
 8049764:	83 ec 0c             	sub    $0xc,%esp
 8049767:	68 21 9f 04 08       	push   $0x8049f21
 804976c:	e8 ef f0 ff ff       	call   8048860 <puts@plt>
 8049771:	c7 04 24 08 00 00 00 	movl   $0x8,(%esp)
 8049778:	e8 13 f1 ff ff       	call   8048890 <exit@plt>
 804977d:	83 ec 0c             	sub    $0xc,%esp
 8049780:	ff 74 24 18          	pushl  0x18(%esp)
 8049784:	e8 17 f0 ff ff       	call   80487a0 <dup@plt>
 8049789:	83 c4 10             	add    $0x10,%esp
 804978c:	85 c0                	test   %eax,%eax
 804978e:	74 19                	je     80497a9 <send_msg_2+0x202>
 8049790:	83 ec 0c             	sub    $0xc,%esp
 8049793:	68 3a 9f 04 08       	push   $0x8049f3a
 8049798:	e8 c3 f0 ff ff       	call   8048860 <puts@plt>
 804979d:	c7 04 24 08 00 00 00 	movl   $0x8,(%esp)
 80497a4:	e8 e7 f0 ff ff       	call   8048890 <exit@plt>
 80497a9:	83 ec 0c             	sub    $0xc,%esp
 80497ac:	ff 74 24 18          	pushl  0x18(%esp)
 80497b0:	e8 bb f1 ff ff       	call   8048970 <close@plt>
 80497b5:	83 c4 10             	add    $0x10,%esp
 80497b8:	85 c0                	test   %eax,%eax
 80497ba:	74 19                	je     80497d5 <send_msg_2+0x22e>
 80497bc:	83 ec 0c             	sub    $0xc,%esp
 80497bf:	68 55 9f 04 08       	push   $0x8049f55
 80497c4:	e8 97 f0 ff ff       	call   8048860 <puts@plt>
 80497c9:	c7 04 24 08 00 00 00 	movl   $0x8,(%esp)
 80497d0:	e8 bb f0 ff ff       	call   8048890 <exit@plt>
 80497d5:	83 c4 6c             	add    $0x6c,%esp
 80497d8:	5b                   	pop    %ebx
 80497d9:	5e                   	pop    %esi
 80497da:	5f                   	pop    %edi
 80497db:	5d                   	pop    %ebp
 80497dc:	c3                   	ret    

080497dd <explode_bomb>:
 80497dd:	83 ec 18             	sub    $0x18,%esp
 80497e0:	68 6c 9f 04 08       	push   $0x8049f6c
 80497e5:	e8 76 f0 ff ff       	call   8048860 <puts@plt>
 80497ea:	c7 04 24 75 9f 04 08 	movl   $0x8049f75,(%esp)
 80497f1:	e8 6a f0 ff ff       	call   8048860 <puts@plt>
 80497f6:	c7 04 24 00 00 00 00 	movl   $0x0,(%esp)
 80497fd:	e8 98 fa ff ff       	call   804929a <send_msg>
 8049802:	c7 04 24 b8 9c 04 08 	movl   $0x8049cb8,(%esp)
 8049809:	e8 52 f0 ff ff       	call   8048860 <puts@plt>
 804980e:	c7 04 24 08 00 00 00 	movl   $0x8,(%esp)
 8049815:	e8 76 f0 ff ff       	call   8048890 <exit@plt>

0804981a <read_six_numbers>:
 804981a:	83 ec 0c             	sub    $0xc,%esp
 804981d:	8b 44 24 14          	mov    0x14(%esp),%eax
 8049821:	8d 50 14             	lea    0x14(%eax),%edx
 8049824:	52                   	push   %edx
 8049825:	8d 50 10             	lea    0x10(%eax),%edx
 8049828:	52                   	push   %edx
 8049829:	8d 50 0c             	lea    0xc(%eax),%edx
 804982c:	52                   	push   %edx
 804982d:	8d 50 08             	lea    0x8(%eax),%edx
 8049830:	52                   	push   %edx
 8049831:	8d 50 04             	lea    0x4(%eax),%edx
 8049834:	52                   	push   %edx
 8049835:	50                   	push   %eax
 8049836:	68 8c 9f 04 08       	push   $0x8049f8c
 804983b:	ff 74 24 2c          	pushl  0x2c(%esp)
 804983f:	e8 8c f0 ff ff       	call   80488d0 <__isoc99_sscanf@plt>
 8049844:	83 c4 20             	add    $0x20,%esp
 8049847:	83 f8 05             	cmp    $0x5,%eax
 804984a:	7f 05                	jg     8049851 <read_six_numbers+0x37>
 804984c:	e8 8c ff ff ff       	call   80497dd <explode_bomb>
 8049851:	83 c4 0c             	add    $0xc,%esp
 8049854:	c3                   	ret    

08049855 <read_line>:
 8049855:	57                   	push   %edi
 8049856:	56                   	push   %esi
 8049857:	53                   	push   %ebx
 8049858:	e8 a7 f9 ff ff       	call   8049204 <skip>
 804985d:	85 c0                	test   %eax,%eax
 804985f:	75 62                	jne    80498c3 <read_line+0x6e>
 8049861:	a1 80 b7 04 08       	mov    0x804b780,%eax
 8049866:	39 05 ac b7 04 08    	cmp    %eax,0x804b7ac
 804986c:	75 12                	jne    8049880 <read_line+0x2b>
 804986e:	83 ec 0c             	sub    $0xc,%esp
 8049871:	68 9e 9f 04 08       	push   $0x8049f9e
 8049876:	e8 e5 ef ff ff       	call   8048860 <puts@plt>
 804987b:	e8 5d ff ff ff       	call   80497dd <explode_bomb>
 8049880:	83 ec 0c             	sub    $0xc,%esp
 8049883:	68 bc 9f 04 08       	push   $0x8049fbc
 8049888:	e8 c3 ef ff ff       	call   8048850 <getenv@plt>
 804988d:	83 c4 10             	add    $0x10,%esp
 8049890:	85 c0                	test   %eax,%eax
 8049892:	74 0a                	je     804989e <read_line+0x49>
 8049894:	83 ec 0c             	sub    $0xc,%esp
 8049897:	6a 00                	push   $0x0
 8049899:	e8 f2 ef ff ff       	call   8048890 <exit@plt>
 804989e:	a1 80 b7 04 08       	mov    0x804b780,%eax
 80498a3:	a3 ac b7 04 08       	mov    %eax,0x804b7ac
 80498a8:	e8 57 f9 ff ff       	call   8049204 <skip>
 80498ad:	85 c0                	test   %eax,%eax
 80498af:	75 12                	jne    80498c3 <read_line+0x6e>
 80498b1:	83 ec 0c             	sub    $0xc,%esp
 80498b4:	68 9e 9f 04 08       	push   $0x8049f9e
 80498b9:	e8 a2 ef ff ff       	call   8048860 <puts@plt>
 80498be:	e8 1a ff ff ff       	call   80497dd <explode_bomb>
 80498c3:	8b 1d a8 b7 04 08    	mov    0x804b7a8,%ebx
 80498c9:	8d 34 9b             	lea    (%ebx,%ebx,4),%esi
 80498cc:	c1 e6 04             	shl    $0x4,%esi
 80498cf:	81 c6 c0 b7 04 08    	add    $0x804b7c0,%esi
 80498d5:	89 f7                	mov    %esi,%edi
 80498d7:	b8 00 00 00 00       	mov    $0x0,%eax
 80498dc:	b9 ff ff ff ff       	mov    $0xffffffff,%ecx
 80498e1:	f2 ae                	repnz scas %es:(%edi),%al
 80498e3:	f7 d1                	not    %ecx
 80498e5:	83 e9 01             	sub    $0x1,%ecx
 80498e8:	83 f9 4f             	cmp    $0x4f,%ecx
 80498eb:	75 12                	jne    80498ff <read_line+0xaa>
 80498ed:	83 ec 0c             	sub    $0xc,%esp
 80498f0:	68 c7 9f 04 08       	push   $0x8049fc7
 80498f5:	e8 66 ef ff ff       	call   8048860 <puts@plt>
 80498fa:	e8 de fe ff ff       	call   80497dd <explode_bomb>
 80498ff:	8d 04 9b             	lea    (%ebx,%ebx,4),%eax
 8049902:	c1 e0 04             	shl    $0x4,%eax
 8049905:	c6 84 01 bf b7 04 08 	movb   $0x0,0x804b7bf(%ecx,%eax,1)
 804990c:	00 
 804990d:	83 c3 01             	add    $0x1,%ebx
 8049910:	89 1d a8 b7 04 08    	mov    %ebx,0x804b7a8
 8049916:	89 f0                	mov    %esi,%eax
 8049918:	5b                   	pop    %ebx
 8049919:	5e                   	pop    %esi
 804991a:	5f                   	pop    %edi
 804991b:	c3                   	ret    

0804991c <phase_defused>:
 804991c:	83 ec 78             	sub    $0x78,%esp
 804991f:	6a 01                	push   $0x1
 8049921:	e8 74 f9 ff ff       	call   804929a <send_msg>
 8049926:	83 c4 10             	add    $0x10,%esp
 8049929:	83 3d a8 b7 04 08 06 	cmpl   $0x6,0x804b7a8
 8049930:	75 77                	jne    80499a9 <phase_defused+0x8d>
 8049932:	8d 44 24 10          	lea    0x10(%esp),%eax
 8049936:	50                   	push   %eax
 8049937:	8d 44 24 10          	lea    0x10(%esp),%eax
 804993b:	50                   	push   %eax
 804993c:	68 e2 9f 04 08       	push   $0x8049fe2
 8049941:	68 b0 b8 04 08       	push   $0x804b8b0
 8049946:	e8 85 ef ff ff       	call   80488d0 <__isoc99_sscanf@plt>
 804994b:	83 c4 10             	add    $0x10,%esp
 804994e:	83 f8 02             	cmp    $0x2,%eax
 8049951:	75 3a                	jne    804998d <phase_defused+0x71>
 8049953:	83 ec 08             	sub    $0x8,%esp
 8049956:	68 e8 9f 04 08       	push   $0x8049fe8
 804995b:	8d 44 24 1c          	lea    0x1c(%esp),%eax
 804995f:	50                   	push   %eax
 8049960:	e8 fc f6 ff ff       	call   8049061 <strings_not_equal>
 8049965:	83 c4 10             	add    $0x10,%esp
 8049968:	85 c0                	test   %eax,%eax
 804996a:	75 21                	jne    804998d <phase_defused+0x71>
 804996c:	83 ec 0c             	sub    $0xc,%esp
 804996f:	68 dc 9c 04 08       	push   $0x8049cdc
 8049974:	e8 e7 ee ff ff       	call   8048860 <puts@plt>
 8049979:	c7 04 24 04 9d 04 08 	movl   $0x8049d04,(%esp)
 8049980:	e8 db ee ff ff       	call   8048860 <puts@plt>
 8049985:	e8 e8 f5 ff ff       	call   8048f72 <secret_phase>
 804998a:	83 c4 10             	add    $0x10,%esp
 804998d:	83 ec 0c             	sub    $0xc,%esp
 8049990:	68 3c 9d 04 08       	push   $0x8049d3c
 8049995:	e8 c6 ee ff ff       	call   8048860 <puts@plt>
 804999a:	c7 04 24 68 9d 04 08 	movl   $0x8049d68,(%esp)
 80499a1:	e8 ba ee ff ff       	call   8048860 <puts@plt>
 80499a6:	83 c4 10             	add    $0x10,%esp
 80499a9:	83 c4 6c             	add    $0x6c,%esp
 80499ac:	c3                   	ret    
 80499ad:	66 90                	xchg   %ax,%ax
 80499af:	90                   	nop

080499b0 <__libc_csu_init>:
 80499b0:	55                   	push   %ebp
 80499b1:	57                   	push   %edi
 80499b2:	31 ff                	xor    %edi,%edi
 80499b4:	56                   	push   %esi
 80499b5:	53                   	push   %ebx
 80499b6:	e8 05 f0 ff ff       	call   80489c0 <__x86.get_pc_thunk.bx>
 80499bb:	81 c3 3d 17 00 00    	add    $0x173d,%ebx
 80499c1:	83 ec 1c             	sub    $0x1c,%esp
 80499c4:	8b 6c 24 30          	mov    0x30(%esp),%ebp
 80499c8:	8d b3 0c ff ff ff    	lea    -0xf4(%ebx),%esi
 80499ce:	e8 61 ed ff ff       	call   8048734 <_init>
 80499d3:	8d 83 08 ff ff ff    	lea    -0xf8(%ebx),%eax
 80499d9:	29 c6                	sub    %eax,%esi
 80499db:	c1 fe 02             	sar    $0x2,%esi
 80499de:	85 f6                	test   %esi,%esi
 80499e0:	74 27                	je     8049a09 <__libc_csu_init+0x59>
 80499e2:	8d b6 00 00 00 00    	lea    0x0(%esi),%esi
 80499e8:	8b 44 24 38          	mov    0x38(%esp),%eax
 80499ec:	89 2c 24             	mov    %ebp,(%esp)
 80499ef:	89 44 24 08          	mov    %eax,0x8(%esp)
 80499f3:	8b 44 24 34          	mov    0x34(%esp),%eax
 80499f7:	89 44 24 04          	mov    %eax,0x4(%esp)
 80499fb:	ff 94 bb 08 ff ff ff 	call   *-0xf8(%ebx,%edi,4)
 8049a02:	83 c7 01             	add    $0x1,%edi
 8049a05:	39 f7                	cmp    %esi,%edi
 8049a07:	75 df                	jne    80499e8 <__libc_csu_init+0x38>
 8049a09:	83 c4 1c             	add    $0x1c,%esp
 8049a0c:	5b                   	pop    %ebx
 8049a0d:	5e                   	pop    %esi
 8049a0e:	5f                   	pop    %edi
 8049a0f:	5d                   	pop    %ebp
 8049a10:	c3                   	ret    
 8049a11:	eb 0d                	jmp    8049a20 <__libc_csu_fini>
 8049a13:	90                   	nop
 8049a14:	90                   	nop
 8049a15:	90                   	nop
 8049a16:	90                   	nop
 8049a17:	90                   	nop
 8049a18:	90                   	nop
 8049a19:	90                   	nop
 8049a1a:	90                   	nop
 8049a1b:	90                   	nop
 8049a1c:	90                   	nop
 8049a1d:	90                   	nop
 8049a1e:	90                   	nop
 8049a1f:	90                   	nop

08049a20 <__libc_csu_fini>:
 8049a20:	f3 c3                	repz ret 

Disassembly of section .fini:

08049a24 <_fini>:
 8049a24:	53                   	push   %ebx
 8049a25:	83 ec 08             	sub    $0x8,%esp
 8049a28:	e8 93 ef ff ff       	call   80489c0 <__x86.get_pc_thunk.bx>
 8049a2d:	81 c3 cb 16 00 00    	add    $0x16cb,%ebx
 8049a33:	83 c4 08             	add    $0x8,%esp
 8049a36:	5b                   	pop    %ebx
 8049a37:	c3                   	ret    
